ARM GAS  C:\Users\Cairne\AppData\Local\Temp\ccXxWxzP.s 			page 1


   1              		.cpu cortex-m4
   2              		.eabi_attribute 27, 1
   3              		.eabi_attribute 28, 1
   4              		.eabi_attribute 20, 1
   5              		.eabi_attribute 21, 1
   6              		.eabi_attribute 23, 3
   7              		.eabi_attribute 24, 1
   8              		.eabi_attribute 25, 1
   9              		.eabi_attribute 26, 1
  10              		.eabi_attribute 30, 1
  11              		.eabi_attribute 34, 1
  12              		.eabi_attribute 18, 4
  13              		.file	"main.c"
  14              		.text
  15              	.Ltext0:
  16              		.cfi_sections	.debug_frame
  17              		.section	.text.SystemClock_Config,"ax",%progbits
  18              		.align	1
  19              		.global	SystemClock_Config
  20              		.syntax unified
  21              		.thumb
  22              		.thumb_func
  23              		.fpu fpv4-sp-d16
  25              	SystemClock_Config:
  26              	.LFB134:
  27              		.file 1 "Src/main.c"
   1:Src/main.c    **** /* USER CODE BEGIN Header */
   2:Src/main.c    **** /**
   3:Src/main.c    ****   ******************************************************************************
   4:Src/main.c    ****   * @file           : main.c
   5:Src/main.c    ****   * @brief          : Main program body
   6:Src/main.c    ****   ******************************************************************************
   7:Src/main.c    ****   * @attention
   8:Src/main.c    ****   *
   9:Src/main.c    ****   * <h2><center>&copy; Copyright (c) 2019 STMicroelectronics.
  10:Src/main.c    ****   * All rights reserved.</center></h2>
  11:Src/main.c    ****   *
  12:Src/main.c    ****   * This software component is licensed by ST under BSD 3-Clause license,
  13:Src/main.c    ****   * the "License"; You may not use this file except in compliance with the
  14:Src/main.c    ****   * License. You may obtain a copy of the License at:
  15:Src/main.c    ****   *                        opensource.org/licenses/BSD-3-Clause
  16:Src/main.c    ****   *
  17:Src/main.c    ****   ******************************************************************************
  18:Src/main.c    ****   */
  19:Src/main.c    **** /* USER CODE END Header */
  20:Src/main.c    **** 
  21:Src/main.c    **** /* Includes ------------------------------------------------------------------*/
  22:Src/main.c    **** #include "main.h"
  23:Src/main.c    **** #include "adc.h"
  24:Src/main.c    **** #include "dma.h"
  25:Src/main.c    **** #include "tim.h"
  26:Src/main.c    **** #include "usart.h"
  27:Src/main.c    **** #include "gpio.h"
  28:Src/main.c    **** 
  29:Src/main.c    **** /* Private includes ----------------------------------------------------------*/
  30:Src/main.c    **** /* USER CODE BEGIN Includes */
  31:Src/main.c    **** #include "myprint.h"
ARM GAS  C:\Users\Cairne\AppData\Local\Temp\ccXxWxzP.s 			page 2


  32:Src/main.c    **** #include "bldc.h"
  33:Src/main.c    **** #include "keyscan.h"
  34:Src/main.c    **** /* USER CODE END Includes */
  35:Src/main.c    **** 
  36:Src/main.c    **** /* Private typedef -----------------------------------------------------------*/
  37:Src/main.c    **** /* USER CODE BEGIN PTD */
  38:Src/main.c    **** 
  39:Src/main.c    **** /* USER CODE END PTD */
  40:Src/main.c    **** 
  41:Src/main.c    **** /* Private define ------------------------------------------------------------*/
  42:Src/main.c    **** /* USER CODE BEGIN PD */
  43:Src/main.c    **** /* USER CODE END PD */
  44:Src/main.c    **** 
  45:Src/main.c    **** /* Private macro -------------------------------------------------------------*/
  46:Src/main.c    **** /* USER CODE BEGIN PM */
  47:Src/main.c    **** 
  48:Src/main.c    **** /* USER CODE END PM */
  49:Src/main.c    **** 
  50:Src/main.c    **** /* Private variables ---------------------------------------------------------*/
  51:Src/main.c    **** 
  52:Src/main.c    **** /* USER CODE BEGIN PV */
  53:Src/main.c    **** extern HALL hallTree;
  54:Src/main.c    **** extern STATE stateContr;
  55:Src/main.c    **** extern PIDREG_T piSpd;
  56:Src/main.c    **** extern PIDREG_T piICurr;
  57:Src/main.c    **** extern volatile uint16_t ADC_DualConvertValTab[5];
  58:Src/main.c    **** /* USER CODE END PV */
  59:Src/main.c    **** 
  60:Src/main.c    **** /* Private function prototypes -----------------------------------------------*/
  61:Src/main.c    **** void SystemClock_Config(void);
  62:Src/main.c    **** /* USER CODE BEGIN PFP */
  63:Src/main.c    **** 
  64:Src/main.c    **** /* USER CODE END PFP */
  65:Src/main.c    **** 
  66:Src/main.c    **** /* Private user code ---------------------------------------------------------*/
  67:Src/main.c    **** /* USER CODE BEGIN 0 */
  68:Src/main.c    **** 
  69:Src/main.c    **** /* USER CODE END 0 */
  70:Src/main.c    **** 
  71:Src/main.c    **** /**
  72:Src/main.c    ****   * @brief  The application entry point.
  73:Src/main.c    ****   * @retval int
  74:Src/main.c    ****   */
  75:Src/main.c    **** int main(void)
  76:Src/main.c    **** {
  77:Src/main.c    ****   /* USER CODE BEGIN 1 */
  78:Src/main.c    **** 
  79:Src/main.c    ****   /* USER CODE END 1 */
  80:Src/main.c    **** 
  81:Src/main.c    ****   /* MCU Configuration--------------------------------------------------------*/
  82:Src/main.c    **** 
  83:Src/main.c    ****   /* Reset of all peripherals, Initializes the Flash interface and the Systick. */
  84:Src/main.c    ****   HAL_Init();
  85:Src/main.c    **** 
  86:Src/main.c    ****   /* USER CODE BEGIN Init */
  87:Src/main.c    **** 
  88:Src/main.c    ****   /* USER CODE END Init */
ARM GAS  C:\Users\Cairne\AppData\Local\Temp\ccXxWxzP.s 			page 3


  89:Src/main.c    **** 
  90:Src/main.c    ****   /* Configure the system clock */
  91:Src/main.c    ****   SystemClock_Config();
  92:Src/main.c    **** 
  93:Src/main.c    ****   /* USER CODE BEGIN SysInit */
  94:Src/main.c    **** 
  95:Src/main.c    ****   /* USER CODE END SysInit */
  96:Src/main.c    **** 
  97:Src/main.c    ****   /* Initialize all configured peripherals */
  98:Src/main.c    ****   MX_GPIO_Init();
  99:Src/main.c    ****   MX_DMA_Init();
 100:Src/main.c    ****   MX_ADC1_Init();
 101:Src/main.c    ****   MX_USART1_UART_Init();
 102:Src/main.c    ****   MX_TIM1_Init();
 103:Src/main.c    ****   /* USER CODE BEGIN 2 */
 104:Src/main.c    ****   HAL_TIM_PWM_MspInit(&htim1);
 105:Src/main.c    ****   PID_Init();
 106:Src/main.c    ****   threeHallPara_Init();
 107:Src/main.c    ****   uint32_t ad1, ad2, ad3, ad4, ad5;
 108:Src/main.c    ****   if (HAL_ADC_Start_DMA(&hadc1, (uint32_t *)&ADC_DualConvertValTab, 5) != HAL_OK)
 109:Src/main.c    ****   {
 110:Src/main.c    ****     while (1)
 111:Src/main.c    ****     {
 112:Src/main.c    ****       myPrint("error code:hall_dma_error!\r\n");
 113:Src/main.c    ****     }
 114:Src/main.c    ****     HAL_NVIC_DisableIRQ(DMA2_Stream0_IRQn);
 115:Src/main.c    ****   }
 116:Src/main.c    ****   if (HAL_TIM_Base_Start_IT(&htim1) != HAL_OK)//start it will cause motor en
 117:Src/main.c    ****   {
 118:Src/main.c    ****     while (1)
 119:Src/main.c    ****     {
 120:Src/main.c    ****       myPrint("error code:hall_base_start_it_error!\r\n ");
 121:Src/main.c    ****     }
 122:Src/main.c    ****   }
 123:Src/main.c    ****   HAL_TIM_PWM_Start(&htim1, TIM_CHANNEL_1);
 124:Src/main.c    ****   HAL_TIM_PWM_Start(&htim1, TIM_CHANNEL_2);
 125:Src/main.c    ****   HAL_TIM_PWM_Start(&htim1, TIM_CHANNEL_3);
 126:Src/main.c    ****   __HAL_TIM_SetCompare(&htim1, TIM_CHANNEL_1, 499);
 127:Src/main.c    ****   __HAL_TIM_SetCompare(&htim1, TIM_CHANNEL_2, 499);
 128:Src/main.c    ****   __HAL_TIM_SetCompare(&htim1, TIM_CHANNEL_3, 499);
 129:Src/main.c    ****   stateContr.controlMode = LOOP;
 130:Src/main.c    ****   switch (stateContr.controlMode)
 131:Src/main.c    ****   {
 132:Src/main.c    ****   case 0x1:
 133:Src/main.c    ****   {
 134:Src/main.c    ****     stateContr.aimSpeed = 100;
 135:Src/main.c    ****     stateContr.aimDuty = 1000 * stateContr.aimSpeed / 100;
 136:Src/main.c    ****   }
 137:Src/main.c    ****   break;
 138:Src/main.c    ****   case 0x2:
 139:Src/main.c    ****   {
 140:Src/main.c    ****     piSpd.ref = 500;
 141:Src/main.c    ****   }
 142:Src/main.c    ****   break;
 143:Src/main.c    ****   case 0x3:
 144:Src/main.c    ****   {
 145:Src/main.c    ****     piSpd.ref = 500;
ARM GAS  C:\Users\Cairne\AppData\Local\Temp\ccXxWxzP.s 			page 4


 146:Src/main.c    ****   }
 147:Src/main.c    ****   break;
 148:Src/main.c    ****   }
 149:Src/main.c    ****   /* USER CODE END 2 */
 150:Src/main.c    **** 
 151:Src/main.c    ****   /* Infinite loop */
 152:Src/main.c    ****   /* USER CODE BEGIN WHILE */
 153:Src/main.c    ****   while (1)
 154:Src/main.c    ****   {
 155:Src/main.c    ****     /* USER CODE END WHILE */
 156:Src/main.c    **** 
 157:Src/main.c    ****     /* USER CODE BEGIN 3 */
 158:Src/main.c    ****   #if 1
 159:Src/main.c    ****     HAL_Delay(20);
 160:Src/main.c    ****     ad1 = ADC_DualConvertValTab[0];
 161:Src/main.c    ****     ad2 = ADC_DualConvertValTab[1];
 162:Src/main.c    ****     ad3 = ADC_DualConvertValTab[2];
 163:Src/main.c    ****     ad4 = ADC_DualConvertValTab[3];
 164:Src/main.c    ****     ad5 = ADC_DualConvertValTab[4];
 165:Src/main.c    ****     //__HAL_TIM_SetCompare(&htim1,TIM_CHANNEL_1,ad1);
 166:Src/main.c    ****     //__HAL_TIM_SetCompare(&htim1,TIM_CHANNEL_2,ad2);
 167:Src/main.c    ****     myPrint("ADC VALUE IS: %d mV| %d mV| %d mV| %d mV| %d mV TIM1 CCR IS: %d %d %d hallstate is: %d
 168:Src/main.c    ****             ad1 * 3300 / 4096, ad2 * 3300 / 4096, ad3 * 3300 / 4096, ad4 * 3300 / 4096, ad5 * 3300 
 169:Src/main.c    ****             TIM1->CCR1, TIM1->CCR2, TIM1->CCR3,\
 170:Src/main.c    ****             hallTree.hallState,stateContr.controlMode);
 171:Src/main.c    ****     keyScan();
 172:Src/main.c    **** #endif
 173:Src/main.c    ****   //motorTestProgram();
 174:Src/main.c    ****   // myPrint("HALL TABLE IS %d %d %d \r\n",HALL_U_STATUS,HALL_V_STATUS,HALL_W_STATUS);
 175:Src/main.c    ****   // HAL_Delay(20);
 176:Src/main.c    ****   }
 177:Src/main.c    ****   /* USER CODE END 3 */
 178:Src/main.c    **** }
 179:Src/main.c    **** 
 180:Src/main.c    **** /**
 181:Src/main.c    ****   * @brief System Clock Configuration
 182:Src/main.c    ****   * @retval None
 183:Src/main.c    ****   */
 184:Src/main.c    **** void SystemClock_Config(void)
 185:Src/main.c    **** {
  28              		.loc 1 185 0
  29              		.cfi_startproc
  30              		@ args = 0, pretend = 0, frame = 80
  31              		@ frame_needed = 0, uses_anonymous_args = 0
  32 0000 30B5     		push	{r4, r5, lr}
  33              	.LCFI0:
  34              		.cfi_def_cfa_offset 12
  35              		.cfi_offset 4, -12
  36              		.cfi_offset 5, -8
  37              		.cfi_offset 14, -4
  38 0002 95B0     		sub	sp, sp, #84
  39              	.LCFI1:
  40              		.cfi_def_cfa_offset 96
 186:Src/main.c    ****   RCC_OscInitTypeDef RCC_OscInitStruct = {0};
  41              		.loc 1 186 0
  42 0004 3022     		movs	r2, #48
  43 0006 0021     		movs	r1, #0
ARM GAS  C:\Users\Cairne\AppData\Local\Temp\ccXxWxzP.s 			page 5


  44 0008 08A8     		add	r0, sp, #32
  45 000a FFF7FEFF 		bl	memset
  46              	.LVL0:
 187:Src/main.c    ****   RCC_ClkInitTypeDef RCC_ClkInitStruct = {0};
  47              		.loc 1 187 0
  48 000e 0024     		movs	r4, #0
  49 0010 0394     		str	r4, [sp, #12]
  50 0012 0494     		str	r4, [sp, #16]
  51 0014 0594     		str	r4, [sp, #20]
  52 0016 0694     		str	r4, [sp, #24]
  53 0018 0794     		str	r4, [sp, #28]
  54              	.LBB2:
 188:Src/main.c    **** 
 189:Src/main.c    ****   /** Configure the main internal regulator output voltage 
 190:Src/main.c    ****   */
 191:Src/main.c    ****   __HAL_RCC_PWR_CLK_ENABLE();
  55              		.loc 1 191 0
  56 001a 0194     		str	r4, [sp, #4]
  57 001c 1C4B     		ldr	r3, .L3
  58 001e 1A6C     		ldr	r2, [r3, #64]
  59 0020 42F08052 		orr	r2, r2, #268435456
  60 0024 1A64     		str	r2, [r3, #64]
  61 0026 1B6C     		ldr	r3, [r3, #64]
  62 0028 03F08053 		and	r3, r3, #268435456
  63 002c 0193     		str	r3, [sp, #4]
  64 002e 019B     		ldr	r3, [sp, #4]
  65              	.LBE2:
  66              	.LBB3:
 192:Src/main.c    ****   __HAL_PWR_VOLTAGESCALING_CONFIG(PWR_REGULATOR_VOLTAGE_SCALE1);
  67              		.loc 1 192 0
  68 0030 0294     		str	r4, [sp, #8]
  69 0032 184B     		ldr	r3, .L3+4
  70 0034 1A68     		ldr	r2, [r3]
  71 0036 42F48042 		orr	r2, r2, #16384
  72 003a 1A60     		str	r2, [r3]
  73 003c 1B68     		ldr	r3, [r3]
  74 003e 03F48043 		and	r3, r3, #16384
  75 0042 0293     		str	r3, [sp, #8]
  76 0044 029B     		ldr	r3, [sp, #8]
  77              	.LBE3:
 193:Src/main.c    ****   /** Initializes the CPU, AHB and APB busses clocks 
 194:Src/main.c    ****   */
 195:Src/main.c    ****   RCC_OscInitStruct.OscillatorType = RCC_OSCILLATORTYPE_HSE;
  78              		.loc 1 195 0
  79 0046 0123     		movs	r3, #1
  80 0048 0893     		str	r3, [sp, #32]
 196:Src/main.c    ****   RCC_OscInitStruct.HSEState = RCC_HSE_ON;
  81              		.loc 1 196 0
  82 004a 4FF48033 		mov	r3, #65536
  83 004e 0993     		str	r3, [sp, #36]
 197:Src/main.c    ****   RCC_OscInitStruct.PLL.PLLState = RCC_PLL_ON;
  84              		.loc 1 197 0
  85 0050 0225     		movs	r5, #2
  86 0052 0E95     		str	r5, [sp, #56]
 198:Src/main.c    ****   RCC_OscInitStruct.PLL.PLLSource = RCC_PLLSOURCE_HSE;
  87              		.loc 1 198 0
  88 0054 4FF48003 		mov	r3, #4194304
ARM GAS  C:\Users\Cairne\AppData\Local\Temp\ccXxWxzP.s 			page 6


  89 0058 0F93     		str	r3, [sp, #60]
 199:Src/main.c    ****   RCC_OscInitStruct.PLL.PLLM = 4;
  90              		.loc 1 199 0
  91 005a 0423     		movs	r3, #4
  92 005c 1093     		str	r3, [sp, #64]
 200:Src/main.c    ****   RCC_OscInitStruct.PLL.PLLN = 168;
  93              		.loc 1 200 0
  94 005e A822     		movs	r2, #168
  95 0060 1192     		str	r2, [sp, #68]
 201:Src/main.c    ****   RCC_OscInitStruct.PLL.PLLP = RCC_PLLP_DIV2;
  96              		.loc 1 201 0
  97 0062 1295     		str	r5, [sp, #72]
 202:Src/main.c    ****   RCC_OscInitStruct.PLL.PLLQ = 4;
  98              		.loc 1 202 0
  99 0064 1393     		str	r3, [sp, #76]
 203:Src/main.c    ****   if (HAL_RCC_OscConfig(&RCC_OscInitStruct) != HAL_OK)
 100              		.loc 1 203 0
 101 0066 08A8     		add	r0, sp, #32
 102 0068 FFF7FEFF 		bl	HAL_RCC_OscConfig
 103              	.LVL1:
 204:Src/main.c    ****   {
 205:Src/main.c    ****     Error_Handler();
 206:Src/main.c    ****   }
 207:Src/main.c    ****   /** Initializes the CPU, AHB and APB busses clocks 
 208:Src/main.c    ****   */
 209:Src/main.c    ****   RCC_ClkInitStruct.ClockType = RCC_CLOCKTYPE_HCLK | RCC_CLOCKTYPE_SYSCLK | RCC_CLOCKTYPE_PCLK1 | R
 104              		.loc 1 209 0
 105 006c 0F23     		movs	r3, #15
 106 006e 0393     		str	r3, [sp, #12]
 210:Src/main.c    ****   RCC_ClkInitStruct.SYSCLKSource = RCC_SYSCLKSOURCE_PLLCLK;
 107              		.loc 1 210 0
 108 0070 0495     		str	r5, [sp, #16]
 211:Src/main.c    ****   RCC_ClkInitStruct.AHBCLKDivider = RCC_SYSCLK_DIV1;
 109              		.loc 1 211 0
 110 0072 0594     		str	r4, [sp, #20]
 212:Src/main.c    ****   RCC_ClkInitStruct.APB1CLKDivider = RCC_HCLK_DIV4;
 111              		.loc 1 212 0
 112 0074 4FF4A053 		mov	r3, #5120
 113 0078 0693     		str	r3, [sp, #24]
 213:Src/main.c    ****   RCC_ClkInitStruct.APB2CLKDivider = RCC_HCLK_DIV2;
 114              		.loc 1 213 0
 115 007a 4FF48053 		mov	r3, #4096
 116 007e 0793     		str	r3, [sp, #28]
 214:Src/main.c    **** 
 215:Src/main.c    ****   if (HAL_RCC_ClockConfig(&RCC_ClkInitStruct, FLASH_LATENCY_5) != HAL_OK)
 117              		.loc 1 215 0
 118 0080 0521     		movs	r1, #5
 119 0082 03A8     		add	r0, sp, #12
 120 0084 FFF7FEFF 		bl	HAL_RCC_ClockConfig
 121              	.LVL2:
 216:Src/main.c    ****   {
 217:Src/main.c    ****     Error_Handler();
 218:Src/main.c    ****   }
 219:Src/main.c    ****   /** Enables the Clock Security System 
 220:Src/main.c    ****   */
 221:Src/main.c    ****   HAL_RCC_EnableCSS();
 122              		.loc 1 221 0
ARM GAS  C:\Users\Cairne\AppData\Local\Temp\ccXxWxzP.s 			page 7


 123 0088 FFF7FEFF 		bl	HAL_RCC_EnableCSS
 124              	.LVL3:
 222:Src/main.c    **** }
 125              		.loc 1 222 0
 126 008c 15B0     		add	sp, sp, #84
 127              	.LCFI2:
 128              		.cfi_def_cfa_offset 12
 129              		@ sp needed
 130 008e 30BD     		pop	{r4, r5, pc}
 131              	.L4:
 132              		.align	2
 133              	.L3:
 134 0090 00380240 		.word	1073887232
 135 0094 00700040 		.word	1073770496
 136              		.cfi_endproc
 137              	.LFE134:
 139              		.section	.text.main,"ax",%progbits
 140              		.align	1
 141              		.global	main
 142              		.syntax unified
 143              		.thumb
 144              		.thumb_func
 145              		.fpu fpv4-sp-d16
 147              	main:
 148              	.LFB133:
  76:Src/main.c    ****   /* USER CODE BEGIN 1 */
 149              		.loc 1 76 0
 150              		.cfi_startproc
 151              		@ args = 0, pretend = 0, frame = 0
 152              		@ frame_needed = 0, uses_anonymous_args = 0
 153 0000 F0B5     		push	{r4, r5, r6, r7, lr}
 154              	.LCFI3:
 155              		.cfi_def_cfa_offset 20
 156              		.cfi_offset 4, -20
 157              		.cfi_offset 5, -16
 158              		.cfi_offset 6, -12
 159              		.cfi_offset 7, -8
 160              		.cfi_offset 14, -4
 161 0002 89B0     		sub	sp, sp, #36
 162              	.LCFI4:
 163              		.cfi_def_cfa_offset 56
  84:Src/main.c    **** 
 164              		.loc 1 84 0
 165 0004 FFF7FEFF 		bl	HAL_Init
 166              	.LVL4:
  91:Src/main.c    **** 
 167              		.loc 1 91 0
 168 0008 FFF7FEFF 		bl	SystemClock_Config
 169              	.LVL5:
  98:Src/main.c    ****   MX_DMA_Init();
 170              		.loc 1 98 0
 171 000c FFF7FEFF 		bl	MX_GPIO_Init
 172              	.LVL6:
  99:Src/main.c    ****   MX_ADC1_Init();
 173              		.loc 1 99 0
 174 0010 FFF7FEFF 		bl	MX_DMA_Init
 175              	.LVL7:
ARM GAS  C:\Users\Cairne\AppData\Local\Temp\ccXxWxzP.s 			page 8


 100:Src/main.c    ****   MX_USART1_UART_Init();
 176              		.loc 1 100 0
 177 0014 FFF7FEFF 		bl	MX_ADC1_Init
 178              	.LVL8:
 101:Src/main.c    ****   MX_TIM1_Init();
 179              		.loc 1 101 0
 180 0018 FFF7FEFF 		bl	MX_USART1_UART_Init
 181              	.LVL9:
 102:Src/main.c    ****   /* USER CODE BEGIN 2 */
 182              		.loc 1 102 0
 183 001c FFF7FEFF 		bl	MX_TIM1_Init
 184              	.LVL10:
 104:Src/main.c    ****   PID_Init();
 185              		.loc 1 104 0
 186 0020 3348     		ldr	r0, .L12
 187 0022 FFF7FEFF 		bl	HAL_TIM_PWM_MspInit
 188              	.LVL11:
 105:Src/main.c    ****   threeHallPara_Init();
 189              		.loc 1 105 0
 190 0026 FFF7FEFF 		bl	PID_Init
 191              	.LVL12:
 106:Src/main.c    ****   uint32_t ad1, ad2, ad3, ad4, ad5;
 192              		.loc 1 106 0
 193 002a FFF7FEFF 		bl	threeHallPara_Init
 194              	.LVL13:
 108:Src/main.c    ****   {
 195              		.loc 1 108 0
 196 002e 0522     		movs	r2, #5
 197 0030 3049     		ldr	r1, .L12+4
 198 0032 3148     		ldr	r0, .L12+8
 199 0034 FFF7FEFF 		bl	HAL_ADC_Start_DMA
 200              	.LVL14:
 201 0038 18B1     		cbz	r0, .L6
 202              	.L7:
 112:Src/main.c    ****     }
 203              		.loc 1 112 0 discriminator 1
 204 003a 3048     		ldr	r0, .L12+12
 205 003c FFF7FEFF 		bl	myPrint
 206              	.LVL15:
 207 0040 FBE7     		b	.L7
 208              	.L6:
 116:Src/main.c    ****   {
 209              		.loc 1 116 0
 210 0042 2B48     		ldr	r0, .L12
 211 0044 FFF7FEFF 		bl	HAL_TIM_Base_Start_IT
 212              	.LVL16:
 213 0048 18B1     		cbz	r0, .L8
 214              	.L9:
 120:Src/main.c    ****     }
 215              		.loc 1 120 0 discriminator 1
 216 004a 2D48     		ldr	r0, .L12+16
 217 004c FFF7FEFF 		bl	myPrint
 218              	.LVL17:
 219 0050 FBE7     		b	.L9
 220              	.L8:
 123:Src/main.c    ****   HAL_TIM_PWM_Start(&htim1, TIM_CHANNEL_2);
 221              		.loc 1 123 0
ARM GAS  C:\Users\Cairne\AppData\Local\Temp\ccXxWxzP.s 			page 9


 222 0052 274C     		ldr	r4, .L12
 223 0054 0021     		movs	r1, #0
 224 0056 2046     		mov	r0, r4
 225 0058 FFF7FEFF 		bl	HAL_TIM_PWM_Start
 226              	.LVL18:
 124:Src/main.c    ****   HAL_TIM_PWM_Start(&htim1, TIM_CHANNEL_3);
 227              		.loc 1 124 0
 228 005c 0421     		movs	r1, #4
 229 005e 2046     		mov	r0, r4
 230 0060 FFF7FEFF 		bl	HAL_TIM_PWM_Start
 231              	.LVL19:
 125:Src/main.c    ****   __HAL_TIM_SetCompare(&htim1, TIM_CHANNEL_1, 499);
 232              		.loc 1 125 0
 233 0064 0821     		movs	r1, #8
 234 0066 2046     		mov	r0, r4
 235 0068 FFF7FEFF 		bl	HAL_TIM_PWM_Start
 236              	.LVL20:
 126:Src/main.c    ****   __HAL_TIM_SetCompare(&htim1, TIM_CHANNEL_2, 499);
 237              		.loc 1 126 0
 238 006c 2368     		ldr	r3, [r4]
 239 006e 40F2F312 		movw	r2, #499
 240 0072 5A63     		str	r2, [r3, #52]
 127:Src/main.c    ****   __HAL_TIM_SetCompare(&htim1, TIM_CHANNEL_3, 499);
 241              		.loc 1 127 0
 242 0074 9A63     		str	r2, [r3, #56]
 128:Src/main.c    ****   stateContr.controlMode = LOOP;
 243              		.loc 1 128 0
 244 0076 DA63     		str	r2, [r3, #60]
 129:Src/main.c    ****   switch (stateContr.controlMode)
 245              		.loc 1 129 0
 246 0078 224B     		ldr	r3, .L12+20
 247 007a 0322     		movs	r2, #3
 248 007c 1A70     		strb	r2, [r3]
 145:Src/main.c    ****   }
 249              		.loc 1 145 0
 250 007e 224B     		ldr	r3, .L12+24
 251 0080 224A     		ldr	r2, .L12+28
 252 0082 1A60     		str	r2, [r3]	@ float
 253              	.L10:
 159:Src/main.c    ****     ad1 = ADC_DualConvertValTab[0];
 254              		.loc 1 159 0 discriminator 1
 255 0084 1420     		movs	r0, #20
 256 0086 FFF7FEFF 		bl	HAL_Delay
 257              	.LVL21:
 160:Src/main.c    ****     ad2 = ADC_DualConvertValTab[1];
 258              		.loc 1 160 0 discriminator 1
 259 008a 1A48     		ldr	r0, .L12+4
 260 008c 0188     		ldrh	r1, [r0]
 261              	.LVL22:
 161:Src/main.c    ****     ad3 = ADC_DualConvertValTab[2];
 262              		.loc 1 161 0 discriminator 1
 263 008e 4288     		ldrh	r2, [r0, #2]
 264              	.LVL23:
 162:Src/main.c    ****     ad4 = ADC_DualConvertValTab[3];
 265              		.loc 1 162 0 discriminator 1
 266 0090 8388     		ldrh	r3, [r0, #4]
 267              	.LVL24:
ARM GAS  C:\Users\Cairne\AppData\Local\Temp\ccXxWxzP.s 			page 10


 163:Src/main.c    ****     ad5 = ADC_DualConvertValTab[4];
 268              		.loc 1 163 0 discriminator 1
 269 0092 C488     		ldrh	r4, [r0, #6]
 270              	.LVL25:
 164:Src/main.c    ****     //__HAL_TIM_SetCompare(&htim1,TIM_CHANNEL_1,ad1);
 271              		.loc 1 164 0 discriminator 1
 272 0094 0589     		ldrh	r5, [r0, #8]
 273              	.LVL26:
 168:Src/main.c    ****             TIM1->CCR1, TIM1->CCR2, TIM1->CCR3,\
 274              		.loc 1 168 0 discriminator 1
 275 0096 40F6E440 		movw	r0, #3300
 276 009a 00FB01F1 		mul	r1, r0, r1
 277              	.LVL27:
 278 009e 00FB02F2 		mul	r2, r0, r2
 279              	.LVL28:
 280 00a2 00FB03F3 		mul	r3, r0, r3
 281              	.LVL29:
 282 00a6 00FB04F4 		mul	r4, r0, r4
 283              	.LVL30:
 284 00aa 00FB05F0 		mul	r0, r0, r5
 167:Src/main.c    ****             ad1 * 3300 / 4096, ad2 * 3300 / 4096, ad3 * 3300 / 4096, ad4 * 3300 / 4096, ad5 * 3300 
 285              		.loc 1 167 0 discriminator 1
 286 00ae 184D     		ldr	r5, .L12+32
 287              	.LVL31:
 288 00b0 6E6B     		ldr	r6, [r5, #52]
 289 00b2 AF6B     		ldr	r7, [r5, #56]
 290 00b4 ED6B     		ldr	r5, [r5, #60]
 170:Src/main.c    ****     keyScan();
 291              		.loc 1 170 0 discriminator 1
 292 00b6 DFF860C0 		ldr	ip, .L12+40
 293 00ba 9CF803C0 		ldrb	ip, [ip, #3]	@ zero_extendqisi2
 294 00be DFF844E0 		ldr	lr, .L12+20
 295 00c2 9EF800E0 		ldrb	lr, [lr]	@ zero_extendqisi2
 167:Src/main.c    ****             ad1 * 3300 / 4096, ad2 * 3300 / 4096, ad3 * 3300 / 4096, ad4 * 3300 / 4096, ad5 * 3300 
 296              		.loc 1 167 0 discriminator 1
 297 00c6 CDF818E0 		str	lr, [sp, #24]
 298 00ca CDF814C0 		str	ip, [sp, #20]
 299 00ce 0495     		str	r5, [sp, #16]
 300 00d0 0397     		str	r7, [sp, #12]
 301 00d2 0296     		str	r6, [sp, #8]
 302 00d4 000B     		lsrs	r0, r0, #12
 303 00d6 0190     		str	r0, [sp, #4]
 304 00d8 240B     		lsrs	r4, r4, #12
 305 00da 0094     		str	r4, [sp]
 306 00dc 1B0B     		lsrs	r3, r3, #12
 307 00de 120B     		lsrs	r2, r2, #12
 308 00e0 090B     		lsrs	r1, r1, #12
 309 00e2 0C48     		ldr	r0, .L12+36
 310 00e4 FFF7FEFF 		bl	myPrint
 311              	.LVL32:
 171:Src/main.c    **** #endif
 312              		.loc 1 171 0 discriminator 1
 313 00e8 FFF7FEFF 		bl	keyScan
 314              	.LVL33:
 315 00ec CAE7     		b	.L10
 316              	.L13:
 317 00ee 00BF     		.align	2
ARM GAS  C:\Users\Cairne\AppData\Local\Temp\ccXxWxzP.s 			page 11


 318              	.L12:
 319 00f0 00000000 		.word	htim1
 320 00f4 00000000 		.word	ADC_DualConvertValTab
 321 00f8 00000000 		.word	hadc1
 322 00fc 00000000 		.word	.LC0
 323 0100 20000000 		.word	.LC1
 324 0104 00000000 		.word	stateContr
 325 0108 00000000 		.word	piSpd
 326 010c 0000FA43 		.word	1140457472
 327 0110 00000140 		.word	1073807360
 328 0114 48000000 		.word	.LC2
 329 0118 00000000 		.word	hallTree
 330              		.cfi_endproc
 331              	.LFE133:
 333              		.section	.text.Error_Handler,"ax",%progbits
 334              		.align	1
 335              		.global	Error_Handler
 336              		.syntax unified
 337              		.thumb
 338              		.thumb_func
 339              		.fpu fpv4-sp-d16
 341              	Error_Handler:
 342              	.LFB135:
 223:Src/main.c    **** 
 224:Src/main.c    **** /* USER CODE BEGIN 4 */
 225:Src/main.c    **** 
 226:Src/main.c    **** /* USER CODE END 4 */
 227:Src/main.c    **** 
 228:Src/main.c    **** /**
 229:Src/main.c    ****   * @brief  This function is executed in case of error occurrence.
 230:Src/main.c    ****   * @retval None
 231:Src/main.c    ****   */
 232:Src/main.c    **** void Error_Handler(void)
 233:Src/main.c    **** {
 343              		.loc 1 233 0
 344              		.cfi_startproc
 345              		@ args = 0, pretend = 0, frame = 0
 346              		@ frame_needed = 0, uses_anonymous_args = 0
 347              		@ link register save eliminated.
 234:Src/main.c    ****   /* USER CODE BEGIN Error_Handler_Debug */
 235:Src/main.c    ****   /* User can add his own implementation to report the HAL error return state */
 236:Src/main.c    **** 
 237:Src/main.c    ****   /* USER CODE END Error_Handler_Debug */
 238:Src/main.c    **** }
 348              		.loc 1 238 0
 349 0000 7047     		bx	lr
 350              		.cfi_endproc
 351              	.LFE135:
 353              		.section	.rodata.main.str1.4,"aMS",%progbits,1
 354              		.align	2
 355              	.LC0:
 356 0000 6572726F 		.ascii	"error code:hall_dma_error!\015\012\000"
 356      7220636F 
 356      64653A68 
 356      616C6C5F 
 356      646D615F 
 357 001d 000000   		.space	3
ARM GAS  C:\Users\Cairne\AppData\Local\Temp\ccXxWxzP.s 			page 12


 358              	.LC1:
 359 0020 6572726F 		.ascii	"error code:hall_base_start_it_error!\015\012 \000"
 359      7220636F 
 359      64653A68 
 359      616C6C5F 
 359      62617365 
 360              	.LC2:
 361 0048 41444320 		.ascii	"ADC VALUE IS: %d mV| %d mV| %d mV| %d mV| %d mV TIM"
 361      56414C55 
 361      45204953 
 361      3A202564 
 361      206D567C 
 362 007b 31204343 		.ascii	"1 CCR IS: %d %d %d hallstate is: %d controlmode is:"
 362      52204953 
 362      3A202564 
 362      20256420 
 362      25642068 
 363 00ae 20256420 		.ascii	" %d \015\012\000"
 363      0D0A00
 364              		.text
 365              	.Letext0:
 366              		.file 2 "c:\\program files (x86)\\gnu tools arm embedded\\7 2018-q2-update\\arm-none-eabi\\include
 367              		.file 3 "c:\\program files (x86)\\gnu tools arm embedded\\7 2018-q2-update\\arm-none-eabi\\include
 368              		.file 4 "Drivers/CMSIS/Include/core_cm4.h"
 369              		.file 5 "Drivers/CMSIS/Device/ST/STM32F4xx/Include/system_stm32f4xx.h"
 370              		.file 6 "Drivers/CMSIS/Device/ST/STM32F4xx/Include/stm32f405xx.h"
 371              		.file 7 "Drivers/CMSIS/Device/ST/STM32F4xx/Include/stm32f4xx.h"
 372              		.file 8 "Drivers/STM32F4xx_HAL_Driver/Inc/stm32f4xx_hal_def.h"
 373              		.file 9 "Drivers/STM32F4xx_HAL_Driver/Inc/stm32f4xx_hal_rcc_ex.h"
 374              		.file 10 "Drivers/STM32F4xx_HAL_Driver/Inc/stm32f4xx_hal_rcc.h"
 375              		.file 11 "Drivers/STM32F4xx_HAL_Driver/Inc/stm32f4xx_hal_dma.h"
 376              		.file 12 "Drivers/STM32F4xx_HAL_Driver/Inc/stm32f4xx_hal_adc.h"
 377              		.file 13 "Drivers/STM32F4xx_HAL_Driver/Inc/stm32f4xx_hal_tim.h"
 378              		.file 14 "Drivers/STM32F4xx_HAL_Driver/Inc/stm32f4xx_hal_uart.h"
 379              		.file 15 "Inc/adc.h"
 380              		.file 16 "Inc/tim.h"
 381              		.file 17 "Inc/usart.h"
 382              		.file 18 "c:\\program files (x86)\\gnu tools arm embedded\\7 2018-q2-update\\arm-none-eabi\\includ
 383              		.file 19 "c:\\program files (x86)\\gnu tools arm embedded\\7 2018-q2-update\\arm-none-eabi\\includ
 384              		.file 20 "c:\\program files (x86)\\gnu tools arm embedded\\7 2018-q2-update\\lib\\gcc\\arm-none-ea
 385              		.file 21 "c:\\program files (x86)\\gnu tools arm embedded\\7 2018-q2-update\\arm-none-eabi\\includ
 386              		.file 22 "Inc/bldc.h"
 387              		.file 23 "Drivers/STM32F4xx_HAL_Driver/Inc/stm32f4xx_hal.h"
 388              		.file 24 "Inc/gpio.h"
 389              		.file 25 "Inc/dma.h"
 390              		.file 26 "Inc/myprint.h"
 391              		.file 27 "Inc/keyscan.h"
 392              		.file 28 "<built-in>"
ARM GAS  C:\Users\Cairne\AppData\Local\Temp\ccXxWxzP.s 			page 13

